; Function Attrs: mustprogress uwtable
define hidden void @_ZN10func_entry10set_resultER11ast_managerP4expr(ptr nocapture noundef nonnull align 8 dereferenceable(16) %this, ptr noundef nonnull align 8 dereferenceable(976) %m, ptr noundef %r) local_unnamed_addr #3 align 2 {
entry:
  %tobool.not.i = icmp eq ptr %r, null
  br i1 %tobool.not.i, label %_ZN11ast_manager7inc_refEP3ast.exit, label %if.then.i

if.then.i:                                        ; preds = %entry
  %m_ref_count.i.i = getelementptr inbounds i8, ptr %r, i64 8
  %0 = load i32, ptr %m_ref_count.i.i, align 4
  %inc.i.i = add i32 %0, 1
  store i32 %inc.i.i, ptr %m_ref_count.i.i, align 4
  br label %_ZN11ast_manager7inc_refEP3ast.exit

_ZN11ast_manager7inc_refEP3ast.exit:              ; preds = %entry, %if.then.i
  %m_result = getelementptr inbounds i8, ptr %this, i64 8
  %1 = load ptr, ptr %m_result, align 8
  %tobool.not.i3 = icmp eq ptr %1, null
  br i1 %tobool.not.i3, label %_ZN11ast_manager7dec_refEP3ast.exit, label %if.then.i4

if.then.i4:                                       ; preds = %_ZN11ast_manager7inc_refEP3ast.exit
  %m_ref_count.i.i5 = getelementptr inbounds i8, ptr %1, i64 8
  %2 = load i32, ptr %m_ref_count.i.i5, align 4
  %dec.i.i = add i32 %2, -1
  store i32 %dec.i.i, ptr %m_ref_count.i.i5, align 4
  %cmp.i = icmp eq i32 %dec.i.i, 0
  br i1 %cmp.i, label %if.then2.i, label %_ZN11ast_manager7dec_refEP3ast.exit

if.then2.i:                                       ; preds = %if.then.i4
  tail call void @_ZN11ast_manager11delete_nodeEP3ast(ptr noundef nonnull align 8 dereferenceable(976) %m, ptr noundef nonnull %1)
  br label %_ZN11ast_manager7dec_refEP3ast.exit

_ZN11ast_manager7dec_refEP3ast.exit:              ; preds = %_ZN11ast_manager7inc_refEP3ast.exit, %if.then.i4, %if.then2.i
  store ptr %r, ptr %m_result, align 8
  ret void
}